target datalayout = "e-m:e-p270:32:32-p271:32:32-p272:64:64-i64:64-i128:128-f80:128-n8:16:32:64-S128"
target triple = "x86_64-pc-linux-gnu"

%struct.rb_io = type { i64, ptr, i32, i32, i32, i32, i64, ptr, %struct.rb_io_internal_buffer, %struct.rb_io_internal_buffer, i64, %struct.rb_io_encoding, ptr, %struct.rb_io_internal_buffer, ptr, i64, i32, i32, i64, i64, i64 }
%struct.rb_io_encoding = type { ptr, ptr, i32, i64 }
%struct.rb_io_internal_buffer = type <{ ptr, i32, i32, i32 }>
%union.union_sockaddr = type { %struct.sockaddr_storage, [1920 x i8] }
%struct.sockaddr_storage = type { i16, [118 x i8], i64 }
%union.__SOCKADDR_ARG = type { ptr }
%struct.sockaddr = type { i16, [14 x i8] }

; Function Attrs: nounwind sspstrong uwtable
define i32 @rsock_getfamily(ptr noundef %0) #0 {
  %2 = alloca i32, align 4
  %3 = alloca ptr, align 8
  %4 = alloca %union.union_sockaddr, align 8
  %5 = alloca i32, align 4
  %6 = alloca i32, align 4
  %7 = alloca i32, align 4
  %8 = alloca %union.__SOCKADDR_ARG, align 8
  store ptr %0, ptr %3, align 8, !tbaa !15
  call void @llvm.lifetime.start.p0(i64 2048, ptr %4) #21
  call void @llvm.lifetime.start.p0(i64 4, ptr %5) #21
  store i32 2048, ptr %5, align 4, !tbaa !11
  call void @llvm.lifetime.start.p0(i64 4, ptr %6) #21
  %9 = load ptr, ptr %3, align 8, !tbaa !15
  %10 = getelementptr inbounds nuw %struct.rb_io, ptr %9, i32 0, i32 3
  %11 = load i32, ptr %10, align 4, !tbaa !24
  %12 = and i32 %11, 14680064
  store i32 %12, ptr %6, align 4, !tbaa !11
  %13 = load i32, ptr %6, align 4, !tbaa !11
  %14 = icmp ne i32 %13, 0
  br i1 %14, label %15, label %21

15:                                               ; preds = %1
  %16 = load i32, ptr %6, align 4, !tbaa !11
  switch i32 %16, label %20 [
    i32 2097152, label %17
    i32 4194304, label %18
    i32 8388608, label %19
  ]

17:                                               ; preds = %15
  store i32 1, ptr %2, align 4
  store i32 1, ptr %7, align 4
  br label %54

18:                                               ; preds = %15
  store i32 2, ptr %2, align 4
  store i32 1, ptr %7, align 4
  br label %54

19:                                               ; preds = %15
  store i32 10, ptr %2, align 4
  store i32 1, ptr %7, align 4
  br label %54

20:                                               ; preds = %15
  br label %21

21:                                               ; preds = %20, %1
  %22 = getelementptr inbounds nuw %struct.sockaddr, ptr %4, i32 0, i32 0
  store i16 0, ptr %22, align 8, !tbaa !34
  %23 = load ptr, ptr %3, align 8, !tbaa !15
  %24 = getelementptr inbounds nuw %struct.rb_io, ptr %23, i32 0, i32 2
  %25 = load i32, ptr %24, align 8, !tbaa !17
  store ptr %4, ptr %8, align 8, !tbaa !34
  %26 = getelementptr inbounds nuw %union.__SOCKADDR_ARG, ptr %8, i32 0, i32 0
  %27 = load ptr, ptr %26, align 8
  %28 = call i32 @getsockname(i32 noundef %25, ptr %27, ptr noundef %5) #21
  %29 = icmp slt i32 %28, 0
  br i1 %29, label %30, label %31

30:                                               ; preds = %21
  store i32 0, ptr %2, align 4
  store i32 1, ptr %7, align 4
  br label %54

31:                                               ; preds = %21
  %32 = getelementptr inbounds nuw %struct.sockaddr, ptr %4, i32 0, i32 0
  %33 = load i16, ptr %32, align 8, !tbaa !34
  %34 = zext i16 %33 to i32
  switch i32 %34, label %50 [
    i32 1, label %35
    i32 2, label %40
    i32 10, label %45
  ]

35:                                               ; preds = %31
  %36 = load ptr, ptr %3, align 8, !tbaa !15
  %37 = getelementptr inbounds nuw %struct.rb_io, ptr %36, i32 0, i32 3
  %38 = load i32, ptr %37, align 4, !tbaa !24
  %39 = or i32 %38, 2097152
  store i32 %39, ptr %37, align 4, !tbaa !24
  br label %50

40:                                               ; preds = %31
  %41 = load ptr, ptr %3, align 8, !tbaa !15
  %42 = getelementptr inbounds nuw %struct.rb_io, ptr %41, i32 0, i32 3
  %43 = load i32, ptr %42, align 4, !tbaa !24
  %44 = or i32 %43, 4194304
  store i32 %44, ptr %42, align 4, !tbaa !24
  br label %50

45:                                               ; preds = %31
  %46 = load ptr, ptr %3, align 8, !tbaa !15
  %47 = getelementptr inbounds nuw %struct.rb_io, ptr %46, i32 0, i32 3
  %48 = load i32, ptr %47, align 4, !tbaa !24
  %49 = or i32 %48, 8388608
  store i32 %49, ptr %47, align 4, !tbaa !24
  br label %50

50:                                               ; preds = %31, %45, %40, %35
  %51 = getelementptr inbounds nuw %struct.sockaddr, ptr %4, i32 0, i32 0
  %52 = load i16, ptr %51, align 8, !tbaa !34
  %53 = zext i16 %52 to i32
  store i32 %53, ptr %2, align 4
  store i32 1, ptr %7, align 4
  br label %54

54:                                               ; preds = %50, %30, %19, %18, %17
  call void @llvm.lifetime.end.p0(i64 4, ptr %6) #21
  call void @llvm.lifetime.end.p0(i64 4, ptr %5) #21
  call void @llvm.lifetime.end.p0(i64 2048, ptr %4) #21
  %55 = load i32, ptr %2, align 4
  ret i32 %55
}