; Function Attrs: nounwind sspstrong uwtable
define range(i32 0, 65536) i32 @rsock_getfamily(ptr noundef captures(none) %0) local_unnamed_addr #0 {
  %2 = alloca %union.union_sockaddr, align 8
  %3 = alloca i32, align 4
  call void @llvm.lifetime.start.p0(i64 2048, ptr nonnull %2) #10
  call void @llvm.lifetime.start.p0(i64 4, ptr nonnull %3) #10
  store i32 2048, ptr %3, align 4, !tbaa !6
  %4 = getelementptr inbounds nuw i8, ptr %0, i64 20
  %5 = load i32, ptr %4, align 4, !tbaa !21
  %6 = and i32 %5, 14680064
  switch i32 %6, label %9 [
    i32 8388608, label %8
    i32 2097152, label %22
    i32 4194304, label %7
  ]

7:                                                ; preds = %1
  br label %22

8:                                                ; preds = %1
  br label %22

9:                                                ; preds = %1
  store i16 0, ptr %2, align 8, !tbaa !77
  %10 = getelementptr inbounds nuw i8, ptr %0, i64 16
  %11 = load i32, ptr %10, align 8, !tbaa !12
  %12 = call i32 @getsockname(i32 noundef %11, ptr nonnull %2, ptr noundef nonnull %3) #10
  %13 = icmp slt i32 %12, 0
  br i1 %13, label %22, label %14

14:                                               ; preds = %9
  %15 = load i16, ptr %2, align 8, !tbaa !77
  switch i16 %15, label %20 [
    i16 1, label %.sink.split
    i16 2, label %16
    i16 10, label %17
  ]

16:                                               ; preds = %14
  br label %.sink.split

17:                                               ; preds = %14
  br label %.sink.split

.sink.split:                                      ; preds = %14, %16, %17
  %.sink9 = phi i32 [ 8388608, %17 ], [ 4194304, %16 ], [ 2097152, %14 ]
  %18 = load i32, ptr %4, align 4, !tbaa !21
  %19 = or i32 %18, %.sink9
  store i32 %19, ptr %4, align 4, !tbaa !21
  br label %20

20:                                               ; preds = %.sink.split, %14
  %21 = zext i16 %15 to i32
  br label %22

22:                                               ; preds = %9, %1, %20, %8, %7
  %.0 = phi i32 [ %21, %20 ], [ 10, %8 ], [ 2, %7 ], [ 1, %1 ], [ 0, %9 ]
  call void @llvm.lifetime.end.p0(i64 4, ptr nonnull %3) #10
  call void @llvm.lifetime.end.p0(i64 2048, ptr nonnull %2) #10
  ret i32 %.0
}